target datalayout = "e-m:e-p270:32:32-p271:32:32-p272:64:64-i64:64-i128:128-f80:128-n8:16:32:64-S128"
target triple = "x86_64-pc-linux-gnu"

%struct.ImVec2 = type { float, float }
%struct.ImVec4 = type { float, float, float, float }
%struct.ImDrawListSharedData = type <{ %struct.ImVec2, ptr, ptr, float, float, float, float, float, i32, %struct.ImVec4, %struct.ImVector, [48 x %struct.ImVec2], float, [64 x i8], [4 x i8] }>
%struct.ImVector = type { i32, i32, ptr }
%struct.ImDrawList = type { %struct.ImVector.0, %struct.ImVector.1, %struct.ImVector.2, i32, i32, ptr, ptr, ptr, %struct.ImVector, %struct.ImDrawCmdHeader, %struct.ImDrawListSplitter, %struct.ImVector.4, %struct.ImVector.5, %struct.ImVector.6, float, ptr }
%struct.ImVector.0 = type { i32, i32, ptr }
%struct.ImVector.1 = type { i32, i32, ptr }
%struct.ImVector.2 = type { i32, i32, ptr }
%struct.ImDrawCmdHeader = type <{ %struct.ImVec4, i64, i32, [4 x i8] }>
%struct.ImDrawListSplitter = type { i32, i32, %struct.ImVector.3 }
%struct.ImVector.3 = type { i32, i32, ptr }
%struct.ImVector.4 = type { i32, i32, ptr }
%struct.ImVector.5 = type { i32, i32, ptr }
%struct.ImVector.6 = type { i32, i32, ptr }

; Function Attrs: inlinehint mustprogress nounwind uwtable
define linkonce_odr void @_ZN8ImVectorI6ImVec4E8pop_backEv(ptr noundef nonnull align 8 dereferenceable(16) %0) #7 comdat align 2 {
  %2 = alloca ptr, align 8
  store ptr %0, ptr %2, align 8, !tbaa !82
  %3 = load ptr, ptr %2, align 8
  %4 = getelementptr inbounds nuw %struct.ImVector.4, ptr %3, i32 0, i32 0
  %5 = load i32, ptr %4, align 8, !tbaa !85
  %6 = add nsw i32 %5, -1
  store i32 %6, ptr %4, align 8, !tbaa !85
  ret void
}

; Function Attrs: mustprogress uwtable
define void @_ZN10ImDrawList11PopClipRectEv(ptr noundef nonnull align 8 dereferenceable(216) %0) #6 align 2 {
  %2 = alloca ptr, align 8
  store ptr %0, ptr %2, align 8, !tbaa !43
  %3 = load ptr, ptr %2, align 8
  %4 = getelementptr inbounds nuw %struct.ImDrawList, ptr %3, i32 0, i32 11
  call void @_ZN8ImVectorI6ImVec4E8pop_backEv(ptr noundef nonnull align 8 dereferenceable(16) %4)
  %5 = getelementptr inbounds nuw %struct.ImDrawList, ptr %3, i32 0, i32 11
  %6 = getelementptr inbounds nuw %struct.ImVector.4, ptr %5, i32 0, i32 0
  %7 = load i32, ptr %6, align 8, !tbaa !148
  %8 = icmp eq i32 %7, 0
  br i1 %8, label %9, label %13

9:                                                ; preds = %1
  %10 = getelementptr inbounds nuw %struct.ImDrawList, ptr %3, i32 0, i32 5
  %11 = load ptr, ptr %10, align 8, !tbaa !45
  %12 = getelementptr inbounds nuw %struct.ImDrawListSharedData, ptr %11, i32 0, i32 9
  br label %23

13:                                               ; preds = %1
  %14 = getelementptr inbounds nuw %struct.ImDrawList, ptr %3, i32 0, i32 11
  %15 = getelementptr inbounds nuw %struct.ImVector.4, ptr %14, i32 0, i32 2
  %16 = load ptr, ptr %15, align 8, !tbaa !149
  %17 = getelementptr inbounds nuw %struct.ImDrawList, ptr %3, i32 0, i32 11
  %18 = getelementptr inbounds nuw %struct.ImVector.4, ptr %17, i32 0, i32 0
  %19 = load i32, ptr %18, align 8, !tbaa !148
  %20 = sub nsw i32 %19, 1
  %21 = sext i32 %20 to i64
  %22 = getelementptr inbounds %struct.ImVec4, ptr %16, i64 %21
  br label %23

23:                                               ; preds = %13, %9
  %24 = phi ptr [ %12, %9 ], [ %22, %13 ]
  %25 = getelementptr inbounds nuw %struct.ImDrawList, ptr %3, i32 0, i32 9
  %26 = getelementptr inbounds nuw %struct.ImDrawCmdHeader, ptr %25, i32 0, i32 0
  call void @llvm.memcpy.p0.p0.i64(ptr align 8 %26, ptr align 4 %24, i64 16, i1 false), !tbaa.struct !10
  call void @_ZN10ImDrawList18_OnChangedClipRectEv(ptr noundef nonnull align 8 dereferenceable(216) %3)
  ret void
}