; Function Attrs: mustprogress uwtable
define void @_ZN10ImDrawList11PopClipRectEv(ptr noundef nonnull align 8 captures(none) dereferenceable(216) initializes((96, 112)) %0) local_unnamed_addr #12 align 2 {
  %2 = getelementptr inbounds nuw i8, ptr %0, i64 152
  %3 = load i32, ptr %2, align 8, !tbaa !61
  %4 = add nsw i32 %3, -1
  store i32 %4, ptr %2, align 8, !tbaa !61
  %5 = icmp eq i32 %4, 0
  %6 = getelementptr inbounds nuw i8, ptr %0, i64 56
  %7 = load ptr, ptr %6, align 8
  %8 = getelementptr inbounds nuw i8, ptr %7, i64 48
  %9 = getelementptr inbounds nuw i8, ptr %0, i64 160
  %10 = load ptr, ptr %9, align 8
  %11 = sext i32 %4 to i64
  %12 = getelementptr %struct.ImVec4, ptr %10, i64 %11
  %13 = getelementptr i8, ptr %12, i64 -16
  %14 = select i1 %5, ptr %8, ptr %13
  %15 = getelementptr inbounds nuw i8, ptr %0, i64 96
  tail call void @llvm.memcpy.p0.p0.i64(ptr noundef nonnull align 8 dereferenceable(16) %15, ptr noundef nonnull align 4 dereferenceable(16) %14, i64 16, i1 false), !tbaa.struct !7
  tail call void @_ZN10ImDrawList18_OnChangedClipRectEv(ptr noundef nonnull align 8 dereferenceable(216) %0)
  ret void
}